target datalayout = "e-m:e-p270:32:32-p271:32:32-p272:64:64-i64:64-i128:128-f80:128-n8:16:32:64-S128"
target triple = "x86_64-pc-linux-gnu"

%struct._packet_info = type { ptr, ptr, i32, i32, %struct.nstime_t, %struct.nstime_t, %struct.nstime_t, i8, ptr, ptr, ptr, ptr, %struct._address, %struct._address, %struct._address, %struct._address, %struct._address, %struct._address, i32, ptr, i8, [3 x i8], %struct.anon, i32, i32, i32, i32, ptr, i8, ptr, ptr, i16, i16, i32, i32, i16, i32, i32, ptr, ptr, ptr, i8, i8, i16, i16, i16, i32, i16, i16, ptr, ptr, ptr, ptr, ptr, i32, i32 }
%struct.nstime_t = type { i64, i32 }
%struct._address = type { i32, i32, ptr, ptr }
%struct.anon = type { i8, [3 x i8] }

@hf_sigcomp_accessing_state = internal global i32 0, align 4
@state_buffer_table = internal global ptr null, align 8

; Function Attrs: null_pointer_is_valid sspstrong uwtable
define internal i32 @udvm_state_access(ptr noundef %0, ptr noundef %1, ptr noundef %2, ptr noundef %3, i16 noundef zeroext %4, i16 noundef zeroext %5, i16 noundef zeroext %6, ptr noundef %7, ptr noundef %8, ptr noundef %9, i32 noundef %10) #0 {
  %12 = alloca i32, align 4
  %13 = alloca ptr, align 8
  %14 = alloca ptr, align 8
  %15 = alloca ptr, align 8
  %16 = alloca ptr, align 8
  %17 = alloca i16, align 2
  %18 = alloca i16, align 2
  %19 = alloca i16, align 2
  %20 = alloca ptr, align 8
  %21 = alloca ptr, align 8
  %22 = alloca ptr, align 8
  %23 = alloca i32, align 4
  %24 = alloca i32, align 4
  %25 = alloca i32, align 4
  %26 = alloca i16, align 2
  %27 = alloca i16, align 2
  %28 = alloca i16, align 2
  %29 = alloca i16, align 2
  %30 = alloca [20 x i8], align 16
  %31 = alloca ptr, align 8
  %32 = alloca ptr, align 8
  %33 = alloca i32, align 4
  store ptr %0, ptr %13, align 8
  store ptr %1, ptr %14, align 8
  store ptr %2, ptr %15, align 8
  store ptr %3, ptr %16, align 8
  store i16 %4, ptr %17, align 2
  store i16 %5, ptr %18, align 2
  store i16 %6, ptr %19, align 2
  store ptr %7, ptr %20, align 8
  store ptr %8, ptr %21, align 8
  store ptr %9, ptr %22, align 8
  store i32 %10, ptr %23, align 4
  call void @llvm.lifetime.start.p0(i64 4, ptr %24) #10
  store i32 0, ptr %24, align 4
  call void @llvm.lifetime.start.p0(i64 4, ptr %25) #10
  call void @llvm.lifetime.start.p0(i64 2, ptr %26) #10
  call void @llvm.lifetime.start.p0(i64 2, ptr %27) #10
  call void @llvm.lifetime.start.p0(i64 2, ptr %28) #10
  call void @llvm.lifetime.start.p0(i64 2, ptr %29) #10
  call void @llvm.lifetime.start.p0(i64 20, ptr %30) #10
  call void @llvm.lifetime.start.p0(i64 8, ptr %31) #10
  call void @llvm.lifetime.start.p0(i64 8, ptr %32) #10
  %34 = load i16, ptr %18, align 2
  %35 = zext i16 %34 to i32
  %36 = icmp slt i32 %35, 6
  br i1 %36, label %41, label %37

37:                                               ; preds = %11
  %38 = load i16, ptr %18, align 2
  %39 = zext i16 %38 to i32
  %40 = icmp sgt i32 %39, 20
  br i1 %40, label %41, label %43

41:                                               ; preds = %37, %11
  store i32 1, ptr %24, align 4
  %42 = load i32, ptr %24, align 4
  store i32 %42, ptr %12, align 4
  store i32 1, ptr %33, align 4
  br label %259

43:                                               ; preds = %37
  store i32 0, ptr %25, align 4
  br label %44

44:                                               ; preds = %60, %43
  %45 = load i32, ptr %25, align 4
  %46 = load i16, ptr %18, align 2
  %47 = zext i16 %46 to i32
  %48 = icmp ult i32 %45, %47
  br i1 %48, label %49, label %58

49:                                               ; preds = %44
  %50 = load i32, ptr %25, align 4
  %51 = icmp ult i32 %50, 20
  br i1 %51, label %52, label %58

52:                                               ; preds = %49
  %53 = load i16, ptr %17, align 2
  %54 = zext i16 %53 to i32
  %55 = load i32, ptr %25, align 4
  %56 = add i32 %54, %55
  %57 = icmp ult i32 %56, 65536
  br label %58

58:                                               ; preds = %52, %49, %44
  %59 = phi i1 [ false, %49 ], [ false, %44 ], [ %57, %52 ]
  br i1 %59, label %60, label %74

60:                                               ; preds = %58
  %61 = load ptr, ptr %16, align 8
  %62 = load i16, ptr %17, align 2
  %63 = zext i16 %62 to i32
  %64 = load i32, ptr %25, align 4
  %65 = add i32 %63, %64
  %66 = zext i32 %65 to i64
  %67 = getelementptr i8, ptr %61, i64 %66
  %68 = load i8, ptr %67, align 1
  %69 = load i32, ptr %25, align 4
  %70 = zext i32 %69 to i64
  %71 = getelementptr [20 x i8], ptr %30, i64 0, i64 %70
  store i8 %68, ptr %71, align 1
  %72 = load i32, ptr %25, align 4
  %73 = add i32 %72, 1
  store i32 %73, ptr %25, align 4
  br label %44, !llvm.loop !13

74:                                               ; preds = %58
  %75 = load ptr, ptr %14, align 8
  %76 = getelementptr inbounds nuw %struct._packet_info, ptr %75, i32 0, i32 51
  %77 = load ptr, ptr %76, align 8
  %78 = getelementptr inbounds [20 x i8], ptr %30, i64 0, i64 0
  %79 = load i16, ptr %18, align 2
  %80 = zext i16 %79 to i64
  %81 = call ptr @bytes_to_str_maxlen(ptr noundef %77, ptr noundef %78, i64 noundef %80, i64 noundef 36)
  store ptr %81, ptr %32, align 8
  %82 = load ptr, ptr %15, align 8
  %83 = load i32, ptr @hf_sigcomp_accessing_state, align 4
  %84 = load ptr, ptr %13, align 8
  %85 = call ptr @proto_tree_add_item(ptr noundef %82, i32 noundef %83, ptr noundef %84, i32 noundef 0, i32 noundef -1, i32 noundef 0)
  %86 = load ptr, ptr %15, align 8
  %87 = load i32, ptr %23, align 4
  %88 = load ptr, ptr %13, align 8
  %89 = load ptr, ptr %32, align 8
  %90 = call ptr @proto_tree_add_string(ptr noundef %86, i32 noundef %87, ptr noundef %88, i32 noundef 0, i32 noundef 0, ptr noundef %89)
  %91 = load ptr, ptr @state_buffer_table, align 8
  %92 = load ptr, ptr %32, align 8
  %93 = call ptr @g_hash_table_lookup(ptr noundef %91, ptr noundef %92)
  store ptr %93, ptr %31, align 8
  %94 = load ptr, ptr %31, align 8
  %95 = icmp eq ptr %94, null
  br i1 %95, label %96, label %98

96:                                               ; preds = %74
  store i32 2, ptr %24, align 4
  %97 = load i32, ptr %24, align 4
  store i32 %97, ptr %12, align 4
  store i32 1, ptr %33, align 4
  br label %259

98:                                               ; preds = %74
  %99 = load ptr, ptr %31, align 8
  %100 = getelementptr i8, ptr %99, i64 0
  %101 = load i8, ptr %100, align 1
  %102 = zext i8 %101 to i32
  %103 = shl i32 %102, 8
  %104 = load ptr, ptr %31, align 8
  %105 = getelementptr i8, ptr %104, i64 1
  %106 = load i8, ptr %105, align 1
  %107 = zext i8 %106 to i32
  %108 = or i32 %103, %107
  %109 = trunc i32 %108 to i16
  store i16 %109, ptr %27, align 2
  %110 = load ptr, ptr %20, align 8
  %111 = load i16, ptr %110, align 2
  %112 = zext i16 %111 to i32
  %113 = icmp eq i32 %112, 0
  br i1 %113, label %114, label %117

114:                                              ; preds = %98
  %115 = load i16, ptr %27, align 2
  %116 = load ptr, ptr %20, align 8
  store i16 %115, ptr %116, align 2
  br label %117

117:                                              ; preds = %114, %98
  %118 = load ptr, ptr %21, align 8
  %119 = load i16, ptr %118, align 2
  %120 = zext i16 %119 to i32
  %121 = icmp eq i32 %120, 0
  br i1 %121, label %122, label %140

122:                                              ; preds = %117
  %123 = load ptr, ptr %31, align 8
  %124 = getelementptr i8, ptr %123, i64 2
  %125 = load i8, ptr %124, align 1
  %126 = zext i8 %125 to i32
  %127 = shl i32 %126, 8
  %128 = trunc i32 %127 to i16
  %129 = load ptr, ptr %21, align 8
  store i16 %128, ptr %129, align 2
  %130 = load ptr, ptr %21, align 8
  %131 = load i16, ptr %130, align 2
  %132 = zext i16 %131 to i32
  %133 = load ptr, ptr %31, align 8
  %134 = getelementptr i8, ptr %133, i64 3
  %135 = load i8, ptr %134, align 1
  %136 = zext i8 %135 to i32
  %137 = or i32 %132, %136
  %138 = trunc i32 %137 to i16
  %139 = load ptr, ptr %21, align 8
  store i16 %138, ptr %139, align 2
  br label %140

140:                                              ; preds = %122, %117
  %141 = load ptr, ptr %22, align 8
  %142 = load i16, ptr %141, align 2
  %143 = zext i16 %142 to i32
  %144 = icmp eq i32 %143, 0
  br i1 %144, label %145, label %163

145:                                              ; preds = %140
  %146 = load ptr, ptr %31, align 8
  %147 = getelementptr i8, ptr %146, i64 4
  %148 = load i8, ptr %147, align 1
  %149 = zext i8 %148 to i32
  %150 = shl i32 %149, 8
  %151 = trunc i32 %150 to i16
  %152 = load ptr, ptr %22, align 8
  store i16 %151, ptr %152, align 2
  %153 = load ptr, ptr %22, align 8
  %154 = load i16, ptr %153, align 2
  %155 = zext i16 %154 to i32
  %156 = load ptr, ptr %31, align 8
  %157 = getelementptr i8, ptr %156, i64 5
  %158 = load i8, ptr %157, align 1
  %159 = zext i8 %158 to i32
  %160 = or i32 %155, %159
  %161 = trunc i32 %160 to i16
  %162 = load ptr, ptr %22, align 8
  store i16 %161, ptr %162, align 2
  br label %163

163:                                              ; preds = %145, %140
  %164 = load i16, ptr %19, align 2
  %165 = zext i16 %164 to i32
  %166 = load ptr, ptr %20, align 8
  %167 = load i16, ptr %166, align 2
  %168 = zext i16 %167 to i32
  %169 = add i32 %165, %168
  %170 = load i16, ptr %27, align 2
  %171 = zext i16 %170 to i32
  %172 = icmp sgt i32 %169, %171
  br i1 %172, label %173, label %174

173:                                              ; preds = %163
  store i32 3, ptr %12, align 4
  store i32 1, ptr %33, align 4
  br label %259

174:                                              ; preds = %163
  %175 = load ptr, ptr %20, align 8
  %176 = load i16, ptr %175, align 2
  %177 = zext i16 %176 to i32
  %178 = icmp eq i32 %177, 0
  br i1 %178, label %179, label %184

179:                                              ; preds = %174
  %180 = load i16, ptr %19, align 2
  %181 = zext i16 %180 to i32
  %182 = icmp ne i32 %181, 0
  br i1 %182, label %183, label %184

183:                                              ; preds = %179
  store i32 17, ptr %12, align 4
  store i32 1, ptr %33, align 4
  br label %259

184:                                              ; preds = %179, %174
  %185 = load i16, ptr %19, align 2
  %186 = zext i16 %185 to i32
  %187 = add i32 %186, 8
  store i32 %187, ptr %25, align 4
  %188 = load ptr, ptr %21, align 8
  %189 = load i16, ptr %188, align 2
  store i16 %189, ptr %26, align 2
  %190 = load ptr, ptr %16, align 8
  %191 = getelementptr i8, ptr %190, i64 66
  %192 = load i8, ptr %191, align 1
  %193 = zext i8 %192 to i32
  %194 = shl i32 %193, 8
  %195 = trunc i32 %194 to i16
  store i16 %195, ptr %28, align 2
  %196 = load i16, ptr %28, align 2
  %197 = zext i16 %196 to i32
  %198 = load ptr, ptr %16, align 8
  %199 = getelementptr i8, ptr %198, i64 67
  %200 = load i8, ptr %199, align 1
  %201 = zext i8 %200 to i32
  %202 = or i32 %197, %201
  %203 = trunc i32 %202 to i16
  store i16 %203, ptr %28, align 2
  %204 = load ptr, ptr %16, align 8
  %205 = getelementptr i8, ptr %204, i64 64
  %206 = load i8, ptr %205, align 1
  %207 = zext i8 %206 to i32
  %208 = shl i32 %207, 8
  %209 = trunc i32 %208 to i16
  store i16 %209, ptr %29, align 2
  %210 = load i16, ptr %29, align 2
  %211 = zext i16 %210 to i32
  %212 = load ptr, ptr %16, align 8
  %213 = getelementptr i8, ptr %212, i64 65
  %214 = load i8, ptr %213, align 1
  %215 = zext i8 %214 to i32
  %216 = or i32 %211, %215
  %217 = trunc i32 %216 to i16
  store i16 %217, ptr %29, align 2
  br label %218

218:                                              ; preds = %255, %184
  %219 = load i32, ptr %25, align 4
  %220 = load i16, ptr %19, align 2
  %221 = zext i16 %220 to i32
  %222 = load ptr, ptr %20, align 8
  %223 = load i16, ptr %222, align 2
  %224 = zext i16 %223 to i32
  %225 = add i32 %221, %224
  %226 = add i32 %225, 8
  %227 = icmp slt i32 %219, %226
  br i1 %227, label %228, label %231

228:                                              ; preds = %218
  %229 = load i32, ptr %25, align 4
  %230 = icmp ult i32 %229, 65536
  br label %231

231:                                              ; preds = %228, %218
  %232 = phi i1 [ false, %218 ], [ %230, %228 ]
  br i1 %232, label %233, label %258

233:                                              ; preds = %231
  %234 = load ptr, ptr %31, align 8
  %235 = load i32, ptr %25, align 4
  %236 = zext i32 %235 to i64
  %237 = getelementptr i8, ptr %234, i64 %236
  %238 = load i8, ptr %237, align 1
  %239 = load ptr, ptr %16, align 8
  %240 = load i16, ptr %26, align 2
  %241 = zext i16 %240 to i64
  %242 = getelementptr i8, ptr %239, i64 %241
  store i8 %238, ptr %242, align 1
  %243 = load i16, ptr %26, align 2
  %244 = zext i16 %243 to i32
  %245 = add i32 %244, 1
  %246 = and i32 %245, 65535
  %247 = trunc i32 %246 to i16
  store i16 %247, ptr %26, align 2
  %248 = load i16, ptr %26, align 2
  %249 = zext i16 %248 to i32
  %250 = load i16, ptr %28, align 2
  %251 = zext i16 %250 to i32
  %252 = icmp eq i32 %249, %251
  br i1 %252, label %253, label %255

253:                                              ; preds = %233
  %254 = load i16, ptr %29, align 2
  store i16 %254, ptr %26, align 2
  br label %255

255:                                              ; preds = %253, %233
  %256 = load i32, ptr %25, align 4
  %257 = add i32 %256, 1
  store i32 %257, ptr %25, align 4
  br label %218, !llvm.loop !14

258:                                              ; preds = %231
  store i32 0, ptr %12, align 4
  store i32 1, ptr %33, align 4
  br label %259

259:                                              ; preds = %258, %183, %173, %96, %41
  call void @llvm.lifetime.end.p0(i64 8, ptr %32) #10
  call void @llvm.lifetime.end.p0(i64 8, ptr %31) #10
  call void @llvm.lifetime.end.p0(i64 20, ptr %30) #10
  call void @llvm.lifetime.end.p0(i64 2, ptr %29) #10
  call void @llvm.lifetime.end.p0(i64 2, ptr %28) #10
  call void @llvm.lifetime.end.p0(i64 2, ptr %27) #10
  call void @llvm.lifetime.end.p0(i64 2, ptr %26) #10
  call void @llvm.lifetime.end.p0(i64 4, ptr %25) #10
  call void @llvm.lifetime.end.p0(i64 4, ptr %24) #10
  %260 = load i32, ptr %12, align 4
  ret i32 %260
}