; Function Attrs: null_pointer_is_valid sspstrong uwtable
define internal fastcc range(i32 0, 18) i32 @udvm_state_access(ptr noundef %0, ptr noundef readonly captures(none) %1, ptr noundef %2, ptr noundef captures(none) %3, i16 noundef zeroext %4, i16 noundef zeroext %5, i16 noundef zeroext %6, ptr noundef captures(none) %7, ptr noundef captures(none) %8, ptr noundef captures(none) %9, i32 noundef %10) unnamed_addr #0 {
  %12 = alloca [20 x i8], align 16
  call void @llvm.lifetime.start.p0(i64 20, ptr nonnull %12) #11
  %13 = add i16 %5, -21
  %or.cond = icmp ult i16 %13, -15
  br i1 %or.cond, label %.loopexit, label %.lr.ph.preheader

.lr.ph.preheader:                                 ; preds = %11
  %14 = zext i16 %4 to i64
  %15 = zext i16 %4 to i64
  %wide.trip.count = sub nuw nsw i64 65536, %14
  %wide.trip.count87 = zext nneg i16 %5 to i64
  %invariant.gep = getelementptr i8, ptr %3, i64 %15
  br label %.lr.ph

.lr.ph:                                           ; preds = %.lr.ph.preheader, %16
  %indvars.iv = phi i64 [ 0, %.lr.ph.preheader ], [ %indvars.iv.next, %16 ]
  %exitcond.not = icmp eq i64 %indvars.iv, %wide.trip.count
  br i1 %exitcond.not, label %.critedge, label %16

16:                                               ; preds = %.lr.ph
  %gep = getelementptr i8, ptr %invariant.gep, i64 %indvars.iv
  %17 = load i8, ptr %gep, align 1
  %18 = getelementptr [20 x i8], ptr %12, i64 0, i64 %indvars.iv
  store i8 %17, ptr %18, align 1
  %indvars.iv.next = add nuw nsw i64 %indvars.iv, 1
  %exitcond88.not = icmp eq i64 %indvars.iv.next, %wide.trip.count87
  br i1 %exitcond88.not, label %.critedge, label %.lr.ph, !llvm.loop !12

.critedge:                                        ; preds = %.lr.ph, %16
  %19 = getelementptr inbounds nuw i8, ptr %1, i64 408
  %20 = load ptr, ptr %19, align 8
  %21 = zext nneg i16 %5 to i64
  %22 = call ptr @bytes_to_str_maxlen(ptr noundef %20, ptr noundef nonnull %12, i64 noundef %21, i64 noundef 36)
  %23 = load i32, ptr @hf_sigcomp_accessing_state, align 4
  %24 = call ptr @proto_tree_add_item(ptr noundef %2, i32 noundef %23, ptr noundef %0, i32 noundef 0, i32 noundef -1, i32 noundef 0)
  %25 = call ptr @proto_tree_add_string(ptr noundef %2, i32 noundef %10, ptr noundef %0, i32 noundef 0, i32 noundef 0, ptr noundef %22)
  %26 = load ptr, ptr @state_buffer_table, align 8
  %27 = call ptr @g_hash_table_lookup(ptr noundef %26, ptr noundef %22)
  %28 = icmp eq ptr %27, null
  br i1 %28, label %.loopexit, label %29

29:                                               ; preds = %.critedge
  %30 = load i8, ptr %27, align 1
  %31 = zext i8 %30 to i16
  %32 = shl nuw i16 %31, 8
  %33 = getelementptr i8, ptr %27, i64 1
  %34 = load i8, ptr %33, align 1
  %35 = zext i8 %34 to i16
  %36 = or disjoint i16 %32, %35
  %37 = load i16, ptr %7, align 2
  %38 = icmp eq i16 %37, 0
  br i1 %38, label %39, label %40

39:                                               ; preds = %29
  store i16 %36, ptr %7, align 2
  br label %40

40:                                               ; preds = %39, %29
  %41 = load i16, ptr %8, align 2
  %42 = icmp eq i16 %41, 0
  br i1 %42, label %43, label %52

43:                                               ; preds = %40
  %44 = getelementptr i8, ptr %27, i64 2
  %45 = load i8, ptr %44, align 1
  %46 = zext i8 %45 to i16
  %47 = shl nuw i16 %46, 8
  store i16 %47, ptr %8, align 2
  %48 = getelementptr i8, ptr %27, i64 3
  %49 = load i8, ptr %48, align 1
  %50 = zext i8 %49 to i16
  %51 = or disjoint i16 %47, %50
  store i16 %51, ptr %8, align 2
  br label %52

52:                                               ; preds = %43, %40
  %53 = load i16, ptr %9, align 2
  %54 = icmp eq i16 %53, 0
  br i1 %54, label %55, label %64

55:                                               ; preds = %52
  %56 = getelementptr i8, ptr %27, i64 4
  %57 = load i8, ptr %56, align 1
  %58 = zext i8 %57 to i16
  %59 = shl nuw i16 %58, 8
  store i16 %59, ptr %9, align 2
  %60 = getelementptr i8, ptr %27, i64 5
  %61 = load i8, ptr %60, align 1
  %62 = zext i8 %61 to i16
  %63 = or disjoint i16 %59, %62
  store i16 %63, ptr %9, align 2
  br label %64

64:                                               ; preds = %55, %52
  %65 = zext i16 %6 to i32
  %66 = load i16, ptr %7, align 2
  %67 = zext i16 %66 to i32
  %68 = add nuw nsw i32 %67, %65
  %69 = zext i16 %36 to i32
  %70 = icmp samesign ugt i32 %68, %69
  br i1 %70, label %.loopexit, label %71

71:                                               ; preds = %64
  %72 = icmp eq i16 %66, 0
  %73 = icmp ne i16 %6, 0
  %or.cond7 = and i1 %73, %72
  br i1 %or.cond7, label %.loopexit, label %74

74:                                               ; preds = %71
  %75 = add nuw nsw i32 %65, 8
  %76 = getelementptr i8, ptr %3, i64 66
  %77 = load i8, ptr %76, align 1
  %78 = zext i8 %77 to i32
  %79 = shl nuw nsw i32 %78, 8
  %80 = getelementptr i8, ptr %3, i64 67
  %81 = load i8, ptr %80, align 1
  %82 = zext i8 %81 to i32
  %83 = or disjoint i32 %79, %82
  %84 = getelementptr i8, ptr %3, i64 64
  %85 = load i8, ptr %84, align 1
  %86 = zext i8 %85 to i16
  %87 = shl nuw i16 %86, 8
  %88 = getelementptr i8, ptr %3, i64 65
  %89 = load i8, ptr %88, align 1
  %90 = zext i8 %89 to i16
  %91 = or disjoint i16 %87, %90
  %92 = icmp ne i16 %66, 0
  %93 = icmp ult i16 %6, -8
  %94 = and i1 %92, %93
  br i1 %94, label %.lr.ph85.preheader, label %.loopexit

.lr.ph85.preheader:                               ; preds = %74
  %95 = load i16, ptr %8, align 2
  %96 = zext i16 %6 to i64
  %97 = add nuw nsw i64 %96, 8
  br label %.lr.ph85

.lr.ph85:                                         ; preds = %.lr.ph85.preheader, %.lr.ph85
  %indvars.iv89 = phi i64 [ %97, %.lr.ph85.preheader ], [ %indvars.iv.next90, %.lr.ph85 ]
  %.07583 = phi i16 [ %95, %.lr.ph85.preheader ], [ %spec.select, %.lr.ph85 ]
  %98 = getelementptr i8, ptr %27, i64 %indvars.iv89
  %99 = load i8, ptr %98, align 1
  %100 = zext i16 %.07583 to i64
  %101 = getelementptr i8, ptr %3, i64 %100
  store i8 %99, ptr %101, align 1
  %102 = add i16 %.07583, 1
  %103 = zext i16 %102 to i32
  %104 = icmp eq i32 %83, %103
  %spec.select = select i1 %104, i16 %91, i16 %102
  %indvars.iv.next90 = add nuw nsw i64 %indvars.iv89, 1
  %105 = load i16, ptr %7, align 2
  %106 = zext i16 %105 to i32
  %107 = add nuw nsw i32 %75, %106
  %108 = zext nneg i32 %107 to i64
  %109 = icmp samesign ult i64 %indvars.iv.next90, %108
  %110 = icmp samesign ult i64 %indvars.iv89, 65535
  %111 = select i1 %109, i1 %110, i1 false
  br i1 %111, label %.lr.ph85, label %.loopexit, !llvm.loop !13

.loopexit:                                        ; preds = %.lr.ph85, %74, %71, %64, %.critedge, %11
  %.0 = phi i32 [ 1, %11 ], [ 2, %.critedge ], [ 3, %64 ], [ 17, %71 ], [ 0, %74 ], [ 0, %.lr.ph85 ]
  call void @llvm.lifetime.end.p0(i64 20, ptr nonnull %12) #11
  ret i32 %.0
}